target datalayout = "e-m:e-p270:32:32-p271:32:32-p272:64:64-i64:64-i128:128-f80:128-n8:16:32:64-S128"
target triple = "x86_64-pc-linux-gnu"

%struct.HEVCContext = type { ptr, ptr, ptr, i32, [2 x %struct.HEVCLayerContext], i32, i32, i32, i8, ptr, %struct.HEVCParamSets, %struct.HEVCSEI, ptr, [7 x %struct.RefPicList], ptr, ptr, %struct.SliceHeader, i32, i32, ptr, ptr, i32, i32, i32, i32, i32, i32, i32, %struct.HEVCPredContext, %struct.HEVCDSPContext, %struct.VideoDSPContext, %struct.BswapDSPContext, %struct.H274FilmGrainDatabase, ptr, i32, %struct.HEVCCABACState, ptr, i32, i32, ptr, %struct.H2645Packet, i32, i32, i32, i32, ptr, i32, ptr, i32, ptr, i32, i32, i32, i32, i64, ptr, %struct.DOVIContext }
%struct.HEVCLayerContext = type { [32 x %struct.HEVCFrame], ptr, ptr, i32, i32, ptr, ptr, ptr, ptr, ptr, ptr, ptr, ptr, ptr, ptr, ptr, ptr, [3 x ptr], [3 x ptr], ptr, ptr }
%struct.HEVCFrame = type { %union.anon, ptr, i32, ptr, ptr, ptr, i32, i32, ptr, ptr, i32, ptr, i32, i8 }
%union.anon = type { %struct.ProgressFrame }
%struct.ProgressFrame = type { ptr, ptr }
%struct.HEVCParamSets = type { [16 x ptr], [16 x ptr], [64 x ptr] }
%struct.HEVCSEI = type { %struct.H2645SEI, %struct.HEVCSEIPictureHash, %struct.HEVCSEIPictureTiming, i32, %struct.HEVCSEITimeCode, %struct.HEVCSEITDRDI, %struct.HEVCSEIRecoveryPoint }
%struct.H2645SEI = type { %struct.H2645SEIA53Caption, %struct.H2645SEIAFD, %struct.HEVCSEIDynamicHDRPlus, %struct.HEVCSEIDynamicHDRVivid, %struct.HEVCSEILCEVC, %struct.H2645SEIUnregistered, %struct.H2645SEIFramePacking, %struct.H2645SEIDisplayOrientation, %struct.H2645SEIAlternativeTransfer, %struct.H2645SEIAmbientViewingEnvironment, %struct.H2645SEIMasteringDisplay, %struct.H2645SEIContentLight, %struct.AVFilmGrainAFGS1Params, ptr }
%struct.H2645SEIA53Caption = type { ptr }
%struct.H2645SEIAFD = type { i32, i8 }
%struct.HEVCSEIDynamicHDRPlus = type { ptr }
%struct.HEVCSEIDynamicHDRVivid = type { ptr }
%struct.HEVCSEILCEVC = type { ptr }
%struct.H2645SEIUnregistered = type { ptr, i32, i32 }
%struct.H2645SEIFramePacking = type { i32, i32, i32, i32, i32, i32, i32, i32 }
%struct.H2645SEIDisplayOrientation = type { i32, i32, i32, i32 }
%struct.H2645SEIAlternativeTransfer = type { i32, i32 }
%struct.H2645SEIAmbientViewingEnvironment = type { i32, i32, i16, i16 }
%struct.H2645SEIMasteringDisplay = type { i32, [3 x [2 x i16]], [2 x i16], i32, i32 }
%struct.H2645SEIContentLight = type { i32, i16, i16 }
%struct.AVFilmGrainAFGS1Params = type { i32, [8 x ptr] }
%struct.HEVCSEIPictureHash = type { [3 x [16 x i8]], i8 }
%struct.HEVCSEIPictureTiming = type { i32 }
%struct.HEVCSEITimeCode = type { i32, i8, [3 x i8], [3 x i8], [3 x i8], [3 x i8], [3 x i8], [3 x i8], [3 x i16], [3 x i8], [3 x i8], [3 x i8], [3 x i8], [3 x i8], [3 x i8], [3 x i8], [3 x i32] }
%struct.HEVCSEITDRDI = type { i8, i8, i8, i8, [32 x i16], [32 x i16], [32 x i8], [32 x i8], [32 x i8], [32 x i8], [32 x i8], [32 x i16], i8 }
%struct.HEVCSEIRecoveryPoint = type { i16, i8, i8, i8 }
%struct.RefPicList = type { [16 x ptr], [16 x i32], [16 x i32], i32 }
%struct.SliceHeader = type { i32, i32, i32, i32, i32, i32, i8, i8, i8, i8, i8, i32, i32, %struct.ShortTermRPS, ptr, i32, %struct.LongTermRPS, [2 x [32 x i32]], [2 x i8], i8, i8, [2 x i32], [3 x i8], i8, i8, i8, i8, i8, i32, i32, i32, i32, i32, i32, i32, i8, i32, i32, i8, i8, ptr, ptr, ptr, i32, i8, i8, i16, [16 x i16], [16 x [2 x i16]], [16 x [2 x i16]], [16 x i16], [16 x i16], [16 x [2 x i16]], [16 x i16], [16 x [2 x i16]], i32, i32 }
%struct.ShortTermRPS = type { [32 x i32], i32, i8, i8, i8, i8, i16, i8 }
%struct.LongTermRPS = type { [32 x i32], [32 x i8], [32 x i8], i8 }
%struct.HEVCPredContext = type { [4 x ptr], [4 x ptr], ptr, [4 x ptr] }
%struct.HEVCDSPContext = type { ptr, [4 x ptr], ptr, ptr, ptr, [4 x ptr], [4 x ptr], [5 x ptr], [5 x ptr], [2 x ptr], [10 x [2 x [2 x ptr]]], [10 x [2 x [2 x ptr]]], [10 x [2 x [2 x ptr]]], [10 x [2 x [2 x ptr]]], [10 x [2 x [2 x ptr]]], [10 x [2 x [2 x ptr]]], [10 x [2 x [2 x ptr]]], [10 x [2 x [2 x ptr]]], [10 x [2 x [2 x ptr]]], [10 x [2 x [2 x ptr]]], ptr, ptr, ptr, ptr, ptr, ptr, ptr, ptr }
%struct.VideoDSPContext = type { ptr, ptr }
%struct.BswapDSPContext = type { ptr, ptr }
%struct.H274FilmGrainDatabase = type { [13 x [13 x [64 x [64 x i8]]]], [13 x i16], [64 x [64 x i16]] }
%struct.HEVCCABACState = type { [199 x i8], [4 x i8] }
%struct.H2645Packet = type { ptr, %struct.H2645RBSP, i32, i32, i32 }
%struct.H2645RBSP = type { ptr, ptr, i32, i32 }
%struct.DOVIContext = type { ptr, i32, %struct.AVDOVIDecoderConfigurationRecord, %struct.AVDOVIRpuDataHeader, ptr, ptr, ptr, ptr, [16 x ptr], ptr, i32 }
%struct.AVDOVIDecoderConfigurationRecord = type { i8, i8, i8, i8, i8, i8, i8, i8, i8 }
%struct.AVDOVIRpuDataHeader = type { i8, i16, i8, i8, i8, i8, i8, i8, i8, i8, i8, i8, i8, i8, i8, i8, i8 }
%struct.AVCodecContext = type { ptr, i32, i32, ptr, i32, i32, ptr, ptr, ptr, i64, i32, i32, ptr, i32, %struct.AVRational, %struct.AVRational, %struct.AVRational, i32, i32, i32, i32, i32, %struct.AVRational, i32, i32, i32, i32, i32, i32, i32, i32, i32, i32, i32, ptr, ptr, i32, float, float, float, float, float, float, float, float, float, i32, i32, i32, i32, i32, i32, i32, i32, i32, i32, i32, i32, ptr, ptr, ptr, i32, i32, i32, i32, i32, i32, i32, i32, i32, i32, %struct.AVChannelLayout, i32, i32, i32, i32, i32, i32, i32, i32, ptr, i32, i32, i32, float, float, i32, i32, i32, i32, i32, ptr, i64, i64, float, float, i32, i32, ptr, ptr, i32, i32, i32, i32, i32, ptr, ptr, ptr, ptr, i32, i32, [8 x i64], i32, i32, i32, i32, i32, i32, i32, ptr, ptr, i32, i32, i32, i32, i32, i32, i32, i32, i32, i32, ptr, ptr, i32, i32, ptr, ptr, ptr, ptr, i32, i32, i64, i32, i32, i64, ptr, i64, ptr, i32, ptr, i32 }
%struct.AVRational = type { i32, i32 }
%struct.AVChannelLayout = type { i32, i32, %union.anon.3, ptr }
%union.anon.3 = type { i64 }
%struct.ThreadProgress = type { i32, i32, %union.pthread_mutex_t, %union.pthread_cond_t }
%union.pthread_mutex_t = type { %struct.__pthread_mutex_s }
%struct.__pthread_mutex_s = type { i32, i32, i32, i32, i32, i16, i16, %struct.__pthread_internal_list }
%struct.__pthread_internal_list = type { ptr, ptr }
%union.pthread_cond_t = type { %struct.__pthread_cond_s }
%struct.__pthread_cond_s = type { %union.__atomic_wide_counter, %union.__atomic_wide_counter, [2 x i32], [2 x i32], i32, i32, [2 x i32] }
%union.__atomic_wide_counter = type { i64 }

; Function Attrs: inlinehint nounwind uwtable
define internal void @ff_hevc_reset_sei(ptr noundef %0) #6 {
  %2 = alloca ptr, align 8
  store ptr %0, ptr %2, align 8, !tbaa !253
  %3 = load ptr, ptr %2, align 8, !tbaa !253
  %4 = getelementptr inbounds nuw %struct.HEVCSEI, ptr %3, i32 0, i32 0
  call void @ff_h2645_sei_reset(ptr noundef %4)
  ret void
}

; Function Attrs: cold nounwind optsize uwtable
define internal i32 @hevc_decode_free(ptr noundef %0) #3 {
  %2 = alloca ptr, align 8
  %3 = alloca ptr, align 8
  %4 = alloca i32, align 4
  %5 = alloca i32, align 4
  %6 = alloca i32, align 4
  %7 = alloca ptr, align 8
  %8 = alloca i32, align 4
  %9 = alloca i32, align 4
  store ptr %0, ptr %2, align 8, !tbaa !81
  call void @llvm.lifetime.start.p0(i64 8, ptr %3) #12
  %10 = load ptr, ptr %2, align 8, !tbaa !81
  %11 = getelementptr inbounds nuw %struct.AVCodecContext, ptr %10, i32 0, i32 6
  %12 = load ptr, ptr %11, align 8, !tbaa !82
  store ptr %12, ptr %3, align 8, !tbaa !4
  call void @llvm.lifetime.start.p0(i64 4, ptr %4) #12
  store i32 0, ptr %4, align 4, !tbaa !70
  br label %13

13:                                               ; preds = %30, %1
  %14 = load i32, ptr %4, align 4, !tbaa !70
  %15 = sext i32 %14 to i64
  %16 = icmp ult i64 %15, 2
  br i1 %16, label %18, label %17

17:                                               ; preds = %13
  call void @llvm.lifetime.end.p0(i64 4, ptr %4) #12
  br label %33

18:                                               ; preds = %13
  %19 = load ptr, ptr %3, align 8, !tbaa !4
  %20 = getelementptr inbounds nuw %struct.HEVCContext, ptr %19, i32 0, i32 4
  %21 = load i32, ptr %4, align 4, !tbaa !70
  %22 = sext i32 %21 to i64
  %23 = getelementptr inbounds [2 x %struct.HEVCLayerContext], ptr %20, i64 0, i64 %22
  call void @pic_arrays_free(ptr noundef %23)
  %24 = load ptr, ptr %3, align 8, !tbaa !4
  %25 = getelementptr inbounds nuw %struct.HEVCContext, ptr %24, i32 0, i32 4
  %26 = load i32, ptr %4, align 4, !tbaa !70
  %27 = sext i32 %26 to i64
  %28 = getelementptr inbounds [2 x %struct.HEVCLayerContext], ptr %25, i64 0, i64 %27
  %29 = getelementptr inbounds nuw %struct.HEVCLayerContext, ptr %28, i32 0, i32 2
  call void @av_refstruct_unref(ptr noundef %29)
  br label %30

30:                                               ; preds = %18
  %31 = load i32, ptr %4, align 4, !tbaa !70
  %32 = add nsw i32 %31, 1
  store i32 %32, ptr %4, align 4, !tbaa !70
  br label %13, !llvm.loop !161

33:                                               ; preds = %17
  %34 = load ptr, ptr %3, align 8, !tbaa !4
  %35 = getelementptr inbounds nuw %struct.HEVCContext, ptr %34, i32 0, i32 14
  call void @av_refstruct_unref(ptr noundef %35)
  %36 = load ptr, ptr %3, align 8, !tbaa !4
  %37 = getelementptr inbounds nuw %struct.HEVCContext, ptr %36, i32 0, i32 15
  call void @av_refstruct_unref(ptr noundef %37)
  %38 = load ptr, ptr %3, align 8, !tbaa !4
  %39 = getelementptr inbounds nuw %struct.HEVCContext, ptr %38, i32 0, i32 56
  call void @ff_dovi_ctx_unref(ptr noundef %39)
  %40 = load ptr, ptr %3, align 8, !tbaa !4
  %41 = getelementptr inbounds nuw %struct.HEVCContext, ptr %40, i32 0, i32 55
  call void @av_buffer_unref(ptr noundef %41)
  %42 = load ptr, ptr %3, align 8, !tbaa !4
  %43 = getelementptr inbounds nuw %struct.HEVCContext, ptr %42, i32 0, i32 12
  call void @av_freep(ptr noundef %43)
  %44 = load ptr, ptr %3, align 8, !tbaa !4
  %45 = getelementptr inbounds nuw %struct.HEVCContext, ptr %44, i32 0, i32 9
  call void @av_container_fifo_free(ptr noundef %45)
  call void @llvm.lifetime.start.p0(i64 4, ptr %5) #12
  store i32 0, ptr %5, align 4, !tbaa !70
  br label %46

46:                                               ; preds = %78, %33
  %47 = load i32, ptr %5, align 4, !tbaa !70
  %48 = sext i32 %47 to i64
  %49 = icmp ult i64 %48, 2
  br i1 %49, label %51, label %50

50:                                               ; preds = %46
  store i32 5, ptr %6, align 4
  call void @llvm.lifetime.end.p0(i64 4, ptr %5) #12
  br label %81

51:                                               ; preds = %46
  call void @llvm.lifetime.start.p0(i64 8, ptr %7) #12
  %52 = load ptr, ptr %3, align 8, !tbaa !4
  %53 = getelementptr inbounds nuw %struct.HEVCContext, ptr %52, i32 0, i32 4
  %54 = load i32, ptr %5, align 4, !tbaa !70
  %55 = sext i32 %54 to i64
  %56 = getelementptr inbounds [2 x %struct.HEVCLayerContext], ptr %53, i64 0, i64 %55
  store ptr %56, ptr %7, align 8, !tbaa !95
  call void @llvm.lifetime.start.p0(i64 4, ptr %8) #12
  store i32 0, ptr %8, align 4, !tbaa !70
  br label %57

57:                                               ; preds = %74, %51
  %58 = load i32, ptr %8, align 4, !tbaa !70
  %59 = sext i32 %58 to i64
  %60 = icmp ult i64 %59, 32
  br i1 %60, label %62, label %61

61:                                               ; preds = %57
  store i32 8, ptr %6, align 4
  call void @llvm.lifetime.end.p0(i64 4, ptr %8) #12
  br label %77

62:                                               ; preds = %57
  %63 = load ptr, ptr %7, align 8, !tbaa !95
  %64 = getelementptr inbounds nuw %struct.HEVCLayerContext, ptr %63, i32 0, i32 0
  %65 = load i32, ptr %8, align 4, !tbaa !70
  %66 = sext i32 %65 to i64
  %67 = getelementptr inbounds [32 x %struct.HEVCFrame], ptr %64, i64 0, i64 %66
  call void @ff_hevc_unref_frame(ptr noundef %67, i32 noundef -1)
  %68 = load ptr, ptr %7, align 8, !tbaa !95
  %69 = getelementptr inbounds nuw %struct.HEVCLayerContext, ptr %68, i32 0, i32 0
  %70 = load i32, ptr %8, align 4, !tbaa !70
  %71 = sext i32 %70 to i64
  %72 = getelementptr inbounds [32 x %struct.HEVCFrame], ptr %69, i64 0, i64 %71
  %73 = getelementptr inbounds nuw %struct.HEVCFrame, ptr %72, i32 0, i32 1
  call void @av_frame_free(ptr noundef %73)
  br label %74

74:                                               ; preds = %62
  %75 = load i32, ptr %8, align 4, !tbaa !70
  %76 = add nsw i32 %75, 1
  store i32 %76, ptr %8, align 4, !tbaa !70
  br label %57, !llvm.loop !162

77:                                               ; preds = %61
  call void @llvm.lifetime.end.p0(i64 8, ptr %7) #12
  br label %78

78:                                               ; preds = %77
  %79 = load i32, ptr %5, align 4, !tbaa !70
  %80 = add nsw i32 %79, 1
  store i32 %80, ptr %5, align 4, !tbaa !70
  br label %46, !llvm.loop !163

81:                                               ; preds = %50
  %82 = load ptr, ptr %3, align 8, !tbaa !4
  %83 = getelementptr inbounds nuw %struct.HEVCContext, ptr %82, i32 0, i32 10
  call void @ff_hevc_ps_uninit(ptr noundef %83)
  call void @llvm.lifetime.start.p0(i64 4, ptr %9) #12
  store i32 0, ptr %9, align 4, !tbaa !70
  br label %84

84:                                               ; preds = %98, %81
  %85 = load i32, ptr %9, align 4, !tbaa !70
  %86 = load ptr, ptr %3, align 8, !tbaa !4
  %87 = getelementptr inbounds nuw %struct.HEVCContext, ptr %86, i32 0, i32 37
  %88 = load i32, ptr %87, align 8, !tbaa !164
  %89 = icmp ult i32 %85, %88
  br i1 %89, label %91, label %90

90:                                               ; preds = %84
  store i32 11, ptr %6, align 4
  call void @llvm.lifetime.end.p0(i64 4, ptr %9) #12
  br label %101

91:                                               ; preds = %84
  %92 = load ptr, ptr %3, align 8, !tbaa !4
  %93 = getelementptr inbounds nuw %struct.HEVCContext, ptr %92, i32 0, i32 36
  %94 = load ptr, ptr %93, align 8, !tbaa !165
  %95 = load i32, ptr %9, align 4, !tbaa !70
  %96 = sext i32 %95 to i64
  %97 = getelementptr inbounds %struct.ThreadProgress, ptr %94, i64 %96
  call void @ff_thread_progress_destroy(ptr noundef %97)
  br label %98

98:                                               ; preds = %91
  %99 = load i32, ptr %9, align 4, !tbaa !70
  %100 = add nsw i32 %99, 1
  store i32 %100, ptr %9, align 4, !tbaa !70
  br label %84, !llvm.loop !166

101:                                              ; preds = %90
  %102 = load ptr, ptr %3, align 8, !tbaa !4
  %103 = getelementptr inbounds nuw %struct.HEVCContext, ptr %102, i32 0, i32 36
  call void @av_freep(ptr noundef %103)
  %104 = load ptr, ptr %3, align 8, !tbaa !4
  %105 = getelementptr inbounds nuw %struct.HEVCContext, ptr %104, i32 0, i32 16
  %106 = getelementptr inbounds nuw %struct.SliceHeader, ptr %105, i32 0, i32 40
  call void @av_freep(ptr noundef %106)
  %107 = load ptr, ptr %3, align 8, !tbaa !4
  %108 = getelementptr inbounds nuw %struct.HEVCContext, ptr %107, i32 0, i32 16
  %109 = getelementptr inbounds nuw %struct.SliceHeader, ptr %108, i32 0, i32 41
  call void @av_freep(ptr noundef %109)
  %110 = load ptr, ptr %3, align 8, !tbaa !4
  %111 = getelementptr inbounds nuw %struct.HEVCContext, ptr %110, i32 0, i32 16
  %112 = getelementptr inbounds nuw %struct.SliceHeader, ptr %111, i32 0, i32 42
  call void @av_freep(ptr noundef %112)
  %113 = load ptr, ptr %3, align 8, !tbaa !4
  %114 = getelementptr inbounds nuw %struct.HEVCContext, ptr %113, i32 0, i32 2
  call void @av_freep(ptr noundef %114)
  %115 = load ptr, ptr %3, align 8, !tbaa !4
  %116 = getelementptr inbounds nuw %struct.HEVCContext, ptr %115, i32 0, i32 40
  call void @ff_h2645_packet_uninit(ptr noundef %116)
  %117 = load ptr, ptr %3, align 8, !tbaa !4
  %118 = getelementptr inbounds nuw %struct.HEVCContext, ptr %117, i32 0, i32 11
  call void @ff_hevc_reset_sei(ptr noundef %118)
  store i32 1, ptr %6, align 4
  call void @llvm.lifetime.end.p0(i64 8, ptr %3) #12
  ret i32 0
}