; Function Attrs: cold nounwind optsize uwtable
define internal noundef i32 @hevc_decode_free(ptr noundef readonly captures(none) %0) #3 {
.critedge:
  %1 = getelementptr inbounds nuw i8, ptr %0, i64 32
  %2 = load ptr, ptr %1, align 8, !tbaa !77
  %3 = getelementptr inbounds nuw i8, ptr %2, i64 32
  tail call fastcc void @pic_arrays_free(ptr noundef nonnull %3)
  %4 = getelementptr inbounds nuw i8, ptr %2, i64 3368
  tail call void @av_refstruct_unref(ptr noundef nonnull %4) #15
  %5 = getelementptr inbounds nuw i8, ptr %2, i64 3544
  tail call fastcc void @pic_arrays_free(ptr noundef nonnull %5)
  %6 = getelementptr inbounds nuw i8, ptr %2, i64 6880
  tail call void @av_refstruct_unref(ptr noundef nonnull %6) #15
  %7 = getelementptr inbounds nuw i8, ptr %2, i64 10432
  tail call void @av_refstruct_unref(ptr noundef nonnull %7) #15
  %8 = getelementptr inbounds nuw i8, ptr %2, i64 10440
  tail call void @av_refstruct_unref(ptr noundef nonnull %8) #15
  %9 = getelementptr inbounds nuw i8, ptr %2, i64 716088
  tail call void @ff_dovi_ctx_unref(ptr noundef nonnull %9) #15
  %10 = getelementptr inbounds nuw i8, ptr %2, i64 716080
  tail call void @av_buffer_unref(ptr noundef nonnull %10) #15
  %11 = getelementptr inbounds nuw i8, ptr %2, i64 8576
  tail call void @av_freep(ptr noundef nonnull %11) #15
  %12 = getelementptr inbounds nuw i8, ptr %2, i64 7072
  tail call void @av_container_fifo_free(ptr noundef nonnull %12) #15
  br label %18

13:                                               ; preds = %21
  %14 = getelementptr inbounds nuw i8, ptr %2, i64 7080
  tail call void @ff_hevc_ps_uninit(ptr noundef nonnull %14) #15
  %15 = getelementptr inbounds nuw i8, ptr %2, i64 715936
  %16 = load i32, ptr %15, align 8, !tbaa !187
  %.not = icmp eq i32 %16, 0
  br i1 %.not, label %._crit_edge, label %.lr.ph

.lr.ph:                                           ; preds = %13
  %17 = getelementptr inbounds nuw i8, ptr %2, i64 715928
  br label %32

18:                                               ; preds = %.critedge, %21
  %19 = phi i1 [ true, %.critedge ], [ false, %21 ]
  %indvars.iv49 = phi i64 [ 0, %.critedge ], [ 1, %21 ]
  %20 = getelementptr inbounds nuw [2 x %struct.HEVCLayerContext], ptr %3, i64 0, i64 %indvars.iv49
  br label %22

21:                                               ; preds = %22
  br i1 %19, label %18, label %13, !llvm.loop !188

22:                                               ; preds = %18, %22
  %indvars.iv46 = phi i64 [ 0, %18 ], [ %indvars.iv.next47, %22 ]
  %23 = getelementptr inbounds nuw [32 x %struct.HEVCFrame], ptr %20, i64 0, i64 %indvars.iv46
  tail call void @ff_hevc_unref_frame(ptr noundef nonnull %23, i32 noundef -1) #15
  %24 = getelementptr inbounds nuw i8, ptr %23, i64 16
  tail call void @av_frame_free(ptr noundef nonnull %24) #15
  %indvars.iv.next47 = add nuw nsw i64 %indvars.iv46, 1
  %exitcond.not = icmp eq i64 %indvars.iv.next47, 32
  br i1 %exitcond.not, label %21, label %22, !llvm.loop !189

._crit_edge:                                      ; preds = %32, %13
  %25 = getelementptr inbounds nuw i8, ptr %2, i64 715928
  tail call void @av_freep(ptr noundef nonnull %25) #15
  %26 = getelementptr inbounds nuw i8, ptr %2, i64 11160
  tail call void @av_freep(ptr noundef nonnull %26) #15
  %27 = getelementptr inbounds nuw i8, ptr %2, i64 11168
  tail call void @av_freep(ptr noundef nonnull %27) #15
  %28 = getelementptr inbounds nuw i8, ptr %2, i64 11176
  tail call void @av_freep(ptr noundef nonnull %28) #15
  %29 = getelementptr inbounds nuw i8, ptr %2, i64 16
  tail call void @av_freep(ptr noundef nonnull %29) #15
  %30 = getelementptr inbounds nuw i8, ptr %2, i64 715952
  tail call void @ff_h2645_packet_uninit(ptr noundef nonnull %30) #15
  %31 = getelementptr inbounds nuw i8, ptr %2, i64 7848
  tail call void @ff_h2645_sei_reset(ptr noundef nonnull %31) #15
  ret i32 0

32:                                               ; preds = %.lr.ph, %32
  %indvars.iv52 = phi i64 [ 0, %.lr.ph ], [ %indvars.iv.next53, %32 ]
  %33 = load ptr, ptr %17, align 8, !tbaa !190
  %34 = getelementptr inbounds nuw %struct.ThreadProgress, ptr %33, i64 %indvars.iv52
  tail call void @ff_thread_progress_destroy(ptr noundef %34) #15
  %indvars.iv.next53 = add nuw nsw i64 %indvars.iv52, 1
  %35 = load i32, ptr %15, align 8, !tbaa !187
  %36 = zext i32 %35 to i64
  %37 = icmp samesign ult i64 %indvars.iv.next53, %36
  br i1 %37, label %32, label %._crit_edge, !llvm.loop !191
}